; Function Attrs: nounwind uwtable
define range(i32 0, 2) i32 @Abc_SclCheckOverlap(ptr noundef readonly captures(none) %0, ptr noundef readonly captures(none) %1) local_unnamed_addr #0 {
  %3 = getelementptr i8, ptr %1, i64 4
  %.val12 = load i32, ptr %3, align 4, !tbaa !15
  %4 = icmp sgt i32 %.val12, 0
  br i1 %4, label %.lr.ph, label %.critedge

.lr.ph:                                           ; preds = %2
  %5 = getelementptr i8, ptr %1, i64 8
  %6 = getelementptr i8, ptr %0, i64 32
  br label %7

7:                                                ; preds = %.lr.ph, %63
  %.val16 = phi i32 [ %.val12, %.lr.ph ], [ %.val, %63 ]
  %indvars.iv = phi i64 [ 0, %.lr.ph ], [ %indvars.iv.next, %63 ]
  %.val10 = load ptr, ptr %5, align 8, !tbaa !37
  %8 = getelementptr inbounds nuw i32, ptr %.val10, i64 %indvars.iv
  %9 = load i32, ptr %8, align 4, !tbaa !33
  %.val11 = load ptr, ptr %6, align 8, !tbaa !18
  %10 = getelementptr i8, ptr %.val11, i64 8
  %.val11.val = load ptr, ptr %10, align 8, !tbaa !31
  %11 = sext i32 %9 to i64
  %12 = getelementptr inbounds ptr, ptr %.val11.val, i64 %11
  %13 = load ptr, ptr %12, align 8, !tbaa !34
  %14 = icmp eq ptr %13, null
  br i1 %14, label %63, label %15

15:                                               ; preds = %7
  %.val2.i = load ptr, ptr %13, align 8, !tbaa !3
  %16 = getelementptr i8, ptr %13, i64 16
  %.val3.i = load i32, ptr %16, align 8, !tbaa !35
  %17 = getelementptr inbounds nuw i8, ptr %.val2.i, i64 224
  %18 = add nsw i32 %.val3.i, 1
  %19 = getelementptr inbounds nuw i8, ptr %.val2.i, i64 228
  %20 = load i32, ptr %19, align 4, !tbaa !15
  %.not.i.not.i.i.i = icmp slt i32 %.val3.i, %20
  br i1 %.not.i.not.i.i.i, label %Abc_NodeIsTravIdCurrent.exit, label %21

21:                                               ; preds = %15
  %22 = load i32, ptr %17, align 8, !tbaa !36
  %23 = shl nsw i32 %22, 1
  %.not.i.i.i = icmp slt i32 %.val3.i, %23
  %.not.i.i.not.i.i.i = icmp sgt i32 %22, %.val3.i
  br i1 %.not.i.i.i, label %36, label %24

24:                                               ; preds = %21
  br i1 %.not.i.i.not.i.i.i, label %Vec_IntGrow.exit.i.i.i.i, label %25

25:                                               ; preds = %24
  %26 = getelementptr inbounds nuw i8, ptr %.val2.i, i64 232
  %27 = load ptr, ptr %26, align 8, !tbaa !37
  %.not9.i.i.i.i.i = icmp eq ptr %27, null
  %28 = sext i32 %18 to i64
  %29 = shl nsw i64 %28, 2
  br i1 %.not9.i.i.i.i.i, label %32, label %30

30:                                               ; preds = %25
  %31 = tail call ptr @realloc(ptr noundef nonnull %27, i64 noundef %29) #20
  br label %34

32:                                               ; preds = %25
  %33 = tail call noalias ptr @malloc(i64 noundef %29) #21
  br label %34

34:                                               ; preds = %32, %30
  %35 = phi ptr [ %31, %30 ], [ %33, %32 ]
  store ptr %35, ptr %26, align 8, !tbaa !37
  br label %Vec_IntGrow.exit.sink.split.i.i.i.i

36:                                               ; preds = %21
  br i1 %.not.i.i.not.i.i.i, label %Vec_IntGrow.exit.i.i.i.i, label %37

37:                                               ; preds = %36
  %38 = getelementptr inbounds nuw i8, ptr %.val2.i, i64 232
  %39 = load ptr, ptr %38, align 8, !tbaa !37
  %.not9.i21.i.i.i.i = icmp eq ptr %39, null
  %40 = sext i32 %23 to i64
  %41 = shl nsw i64 %40, 2
  br i1 %.not9.i21.i.i.i.i, label %44, label %42

42:                                               ; preds = %37
  %43 = tail call ptr @realloc(ptr noundef nonnull %39, i64 noundef %41) #20
  br label %46

44:                                               ; preds = %37
  %45 = tail call noalias ptr @malloc(i64 noundef %41) #21
  br label %46

46:                                               ; preds = %44, %42
  %47 = phi ptr [ %43, %42 ], [ %45, %44 ]
  store ptr %47, ptr %38, align 8, !tbaa !37
  br label %Vec_IntGrow.exit.sink.split.i.i.i.i

Vec_IntGrow.exit.sink.split.i.i.i.i:              ; preds = %46, %34
  %.sink.i.i.i.i = phi i32 [ %23, %46 ], [ %18, %34 ]
  store i32 %.sink.i.i.i.i, ptr %17, align 8, !tbaa !36
  %.pre.i.i.i = load i32, ptr %19, align 4, !tbaa !15
  br label %Vec_IntGrow.exit.i.i.i.i

Vec_IntGrow.exit.i.i.i.i:                         ; preds = %Vec_IntGrow.exit.sink.split.i.i.i.i, %36, %24
  %48 = phi i32 [ %.pre.i.i.i, %Vec_IntGrow.exit.sink.split.i.i.i.i ], [ %20, %36 ], [ %20, %24 ]
  %.not3.i.i.i = icmp sgt i32 %48, %.val3.i
  br i1 %.not3.i.i.i, label %._crit_edge.i.i.i.i, label %.lr.ph.i.i.i.i

.lr.ph.i.i.i.i:                                   ; preds = %Vec_IntGrow.exit.i.i.i.i
  %49 = getelementptr inbounds nuw i8, ptr %.val2.i, i64 232
  %50 = load ptr, ptr %49, align 8, !tbaa !37
  %51 = sext i32 %48 to i64
  %52 = shl nsw i64 %51, 2
  %scevgep.i.i.i.i = getelementptr i8, ptr %50, i64 %52
  %53 = sub i32 %.val3.i, %48
  %54 = zext i32 %53 to i64
  %55 = shl nuw nsw i64 %54, 2
  %56 = add nuw nsw i64 %55, 4
  tail call void @llvm.memset.p0.i64(ptr noundef nonnull align 4 dereferenceable(1) %scevgep.i.i.i.i, i8 0, i64 %56, i1 false), !tbaa !33
  br label %._crit_edge.i.i.i.i

._crit_edge.i.i.i.i:                              ; preds = %.lr.ph.i.i.i.i, %Vec_IntGrow.exit.i.i.i.i
  store i32 %18, ptr %19, align 4, !tbaa !15
  %.val.pre.i = load ptr, ptr %13, align 8, !tbaa !3
  br label %Abc_NodeIsTravIdCurrent.exit

Abc_NodeIsTravIdCurrent.exit:                     ; preds = %15, %._crit_edge.i.i.i.i
  %.val.i = phi ptr [ %.val2.i, %15 ], [ %.val.pre.i, %._crit_edge.i.i.i.i ]
  %57 = getelementptr i8, ptr %.val2.i, i64 232
  %.val.i.i.i = load ptr, ptr %57, align 8, !tbaa !37
  %58 = sext i32 %.val3.i to i64
  %59 = getelementptr inbounds i32, ptr %.val.i.i.i, i64 %58
  %60 = load i32, ptr %59, align 4, !tbaa !33
  %61 = getelementptr inbounds nuw i8, ptr %.val.i, i64 216
  %62 = load i32, ptr %61, align 8, !tbaa !94
  %.not = icmp eq i32 %60, %62
  br i1 %.not, label %.critedge, label %Abc_NodeIsTravIdCurrent.exit._crit_edge

Abc_NodeIsTravIdCurrent.exit._crit_edge:          ; preds = %Abc_NodeIsTravIdCurrent.exit
  %.val.pre = load i32, ptr %3, align 4, !tbaa !15
  br label %63

63:                                               ; preds = %Abc_NodeIsTravIdCurrent.exit._crit_edge, %7
  %.val = phi i32 [ %.val.pre, %Abc_NodeIsTravIdCurrent.exit._crit_edge ], [ %.val16, %7 ]
  %indvars.iv.next = add nuw nsw i64 %indvars.iv, 1
  %64 = sext i32 %.val to i64
  %65 = icmp slt i64 %indvars.iv.next, %64
  br i1 %65, label %7, label %.critedge, !llvm.loop !110

.critedge:                                        ; preds = %Abc_NodeIsTravIdCurrent.exit, %63, %2
  %.08 = phi i32 [ 0, %2 ], [ 0, %63 ], [ 1, %Abc_NodeIsTravIdCurrent.exit ]
  ret i32 %.08
}